; Function Attrs: mustprogress uwtable
define hidden noundef ptr @_Z18get_clause_literalR11ast_managerP4exprj(ptr noundef nonnull align 8 dereferenceable(976) %0, ptr noundef %1, i32 noundef %2) local_unnamed_addr #3 {
  %4 = tail call noundef zeroext i1 @_Z10is_literalR11ast_managerP4expr(ptr noundef nonnull align 8 dereferenceable(976) %0, ptr noundef %1)
  br i1 %4, label %10, label %5

5:                                                ; preds = %3
  %6 = getelementptr inbounds nuw i8, ptr %1, i64 32
  %7 = zext i32 %2 to i64
  %8 = getelementptr inbounds nuw [0 x ptr], ptr %6, i64 0, i64 %7
  %9 = load ptr, ptr %8, align 8, !tbaa !3
  br label %10

10:                                               ; preds = %3, %5
  %.0 = phi ptr [ %9, %5 ], [ %1, %3 ]
  ret ptr %.0
}